target datalayout = "e-m:e-p270:32:32-p271:32:32-p272:64:64-i64:64-i128:128-f80:128-n8:16:32:64-S128"
target triple = "x86_64-pc-linux-gnu"

%union.ListCell = type { ptr }
%struct.ForEachState = type { ptr, i32 }
%struct.List = type { i32, i32, i32, ptr, [0 x %union.ListCell] }

@GUC_check_errdetail_string = external global ptr, align 8
@.str.37 = private unnamed_addr constant [24 x i8] c"List syntax is invalid.\00", align 1
@.str.38 = private unnamed_addr constant [5 x i8] c"view\00", align 1
@.str.39 = private unnamed_addr constant [14 x i8] c"foreign-table\00", align 1
@.str.40 = private unnamed_addr constant [29 x i8] c"Unrecognized key word: \22%s\22.\00", align 1

; Function Attrs: nounwind uwtable
define dso_local zeroext i1 @check_restrict_nonsystem_relation_kind(ptr noundef %0, ptr noundef %1, i32 noundef %2) #0 {
  %4 = alloca i1, align 1
  %5 = alloca ptr, align 8
  %6 = alloca ptr, align 8
  %7 = alloca i32, align 4
  %8 = alloca ptr, align 8
  %9 = alloca ptr, align 8
  %10 = alloca ptr, align 8
  %11 = alloca i32, align 4
  %12 = alloca i32, align 4
  %13 = alloca %struct.ForEachState, align 8
  %14 = alloca ptr, align 8
  store ptr %0, ptr %5, align 8
  store ptr %1, ptr %6, align 8
  store i32 %2, ptr %7, align 4
  call void @llvm.lifetime.start.p0(i64 8, ptr %8) #16
  call void @llvm.lifetime.start.p0(i64 8, ptr %9) #16
  call void @llvm.lifetime.start.p0(i64 8, ptr %10) #16
  call void @llvm.lifetime.start.p0(i64 4, ptr %11) #16
  store i32 0, ptr %11, align 4
  %15 = load ptr, ptr %5, align 8
  %16 = load ptr, ptr %15, align 8
  %17 = call ptr @pstrdup(ptr noundef %16)
  store ptr %17, ptr %8, align 8
  %18 = load ptr, ptr %8, align 8
  %19 = call zeroext i1 @SplitIdentifierString(ptr noundef %18, i8 noundef signext 44, ptr noundef %9)
  br i1 %19, label %26, label %20

20:                                               ; preds = %3
  %21 = call ptr @__errno_location() #17
  %22 = load i32, ptr %21, align 4
  call void @pre_format_elog_string(i32 noundef %22, ptr noundef null)
  %23 = call ptr (ptr, ...) @format_elog_string(ptr noundef @.str.37)
  store ptr %23, ptr @GUC_check_errdetail_string, align 8
  %24 = load ptr, ptr %8, align 8
  call void @pfree(ptr noundef %24)
  %25 = load ptr, ptr %9, align 8
  call void @list_free(ptr noundef %25)
  store i1 false, ptr %4, align 1
  store i32 1, ptr %12, align 4
  br label %99

26:                                               ; preds = %3
  call void @llvm.lifetime.start.p0(i64 16, ptr %13) #16
  %27 = getelementptr inbounds nuw %struct.ForEachState, ptr %13, i32 0, i32 0
  %28 = load ptr, ptr %9, align 8
  store ptr %28, ptr %27, align 8
  %29 = getelementptr inbounds nuw %struct.ForEachState, ptr %13, i32 0, i32 1
  store i32 0, ptr %29, align 8
  %30 = getelementptr i8, ptr %13, i64 12
  call void @llvm.memset.p0.i64(ptr align 4 %30, i8 0, i64 4, i1 false)
  br label %31

31:                                               ; preds = %85, %26
  %32 = getelementptr inbounds nuw %struct.ForEachState, ptr %13, i32 0, i32 0
  %33 = load ptr, ptr %32, align 8
  %34 = icmp ne ptr %33, null
  br i1 %34, label %35, label %52

35:                                               ; preds = %31
  %36 = getelementptr inbounds nuw %struct.ForEachState, ptr %13, i32 0, i32 1
  %37 = load i32, ptr %36, align 8
  %38 = getelementptr inbounds nuw %struct.ForEachState, ptr %13, i32 0, i32 0
  %39 = load ptr, ptr %38, align 8
  %40 = getelementptr inbounds nuw %struct.List, ptr %39, i32 0, i32 1
  %41 = load i32, ptr %40, align 4
  %42 = icmp slt i32 %37, %41
  br i1 %42, label %43, label %52

43:                                               ; preds = %35
  %44 = getelementptr inbounds nuw %struct.ForEachState, ptr %13, i32 0, i32 0
  %45 = load ptr, ptr %44, align 8
  %46 = getelementptr inbounds nuw %struct.List, ptr %45, i32 0, i32 3
  %47 = load ptr, ptr %46, align 8
  %48 = getelementptr inbounds nuw %struct.ForEachState, ptr %13, i32 0, i32 1
  %49 = load i32, ptr %48, align 8
  %50 = sext i32 %49 to i64
  %51 = getelementptr inbounds %union.ListCell, ptr %47, i64 %50
  store ptr %51, ptr %10, align 8
  br label %53

52:                                               ; preds = %35, %31
  store ptr null, ptr %10, align 8
  br label %53

53:                                               ; preds = %52, %43
  %54 = phi i32 [ 1, %43 ], [ 0, %52 ]
  %55 = icmp ne i32 %54, 0
  br i1 %55, label %57, label %56

56:                                               ; preds = %53
  store i32 2, ptr %12, align 4
  br label %89

57:                                               ; preds = %53
  call void @llvm.lifetime.start.p0(i64 8, ptr %14) #16
  %58 = load ptr, ptr %10, align 8
  %59 = load ptr, ptr %58, align 8
  store ptr %59, ptr %14, align 8
  %60 = load ptr, ptr %14, align 8
  %61 = call i32 @pg_strcasecmp(ptr noundef %60, ptr noundef @.str.38)
  %62 = icmp eq i32 %61, 0
  br i1 %62, label %63, label %66

63:                                               ; preds = %57
  %64 = load i32, ptr %11, align 4
  %65 = or i32 %64, 1
  store i32 %65, ptr %11, align 4
  br label %81

66:                                               ; preds = %57
  %67 = load ptr, ptr %14, align 8
  %68 = call i32 @pg_strcasecmp(ptr noundef %67, ptr noundef @.str.39)
  %69 = icmp eq i32 %68, 0
  br i1 %69, label %70, label %73

70:                                               ; preds = %66
  %71 = load i32, ptr %11, align 4
  %72 = or i32 %71, 2
  store i32 %72, ptr %11, align 4
  br label %80

73:                                               ; preds = %66
  %74 = call ptr @__errno_location() #17
  %75 = load i32, ptr %74, align 4
  call void @pre_format_elog_string(i32 noundef %75, ptr noundef null)
  %76 = load ptr, ptr %14, align 8
  %77 = call ptr (ptr, ...) @format_elog_string(ptr noundef @.str.40, ptr noundef %76)
  store ptr %77, ptr @GUC_check_errdetail_string, align 8
  %78 = load ptr, ptr %8, align 8
  call void @pfree(ptr noundef %78)
  %79 = load ptr, ptr %9, align 8
  call void @list_free(ptr noundef %79)
  store i1 false, ptr %4, align 1
  store i32 1, ptr %12, align 4
  br label %82

80:                                               ; preds = %70
  br label %81

81:                                               ; preds = %80, %63
  store i32 0, ptr %12, align 4
  br label %82

82:                                               ; preds = %81, %73
  call void @llvm.lifetime.end.p0(i64 8, ptr %14) #16
  %83 = load i32, ptr %12, align 4
  switch i32 %83, label %89 [
    i32 0, label %84
  ]

84:                                               ; preds = %82
  br label %85

85:                                               ; preds = %84
  %86 = getelementptr inbounds nuw %struct.ForEachState, ptr %13, i32 0, i32 1
  %87 = load i32, ptr %86, align 8
  %88 = add i32 %87, 1
  store i32 %88, ptr %86, align 8
  br label %31, !llvm.loop !10

89:                                               ; preds = %82, %56
  call void @llvm.lifetime.end.p0(i64 16, ptr %13) #16
  %90 = load i32, ptr %12, align 4
  switch i32 %90, label %99 [
    i32 2, label %91
  ]

91:                                               ; preds = %89
  %92 = load ptr, ptr %8, align 8
  call void @pfree(ptr noundef %92)
  %93 = load ptr, ptr %9, align 8
  call void @list_free(ptr noundef %93)
  %94 = call ptr @guc_malloc(i32 noundef 21, i64 noundef 4)
  %95 = load ptr, ptr %6, align 8
  store ptr %94, ptr %95, align 8
  %96 = load i32, ptr %11, align 4
  %97 = load ptr, ptr %6, align 8
  %98 = load ptr, ptr %97, align 8
  store i32 %96, ptr %98, align 4
  store i1 true, ptr %4, align 1
  store i32 1, ptr %12, align 4
  br label %99

99:                                               ; preds = %91, %89, %20
  call void @llvm.lifetime.end.p0(i64 4, ptr %11) #16
  call void @llvm.lifetime.end.p0(i64 8, ptr %10) #16
  call void @llvm.lifetime.end.p0(i64 8, ptr %9) #16
  call void @llvm.lifetime.end.p0(i64 8, ptr %8) #16
  %100 = load i1, ptr %4, align 1
  ret i1 %100
}