; Function Attrs: nounwind uwtable
define dso_local noundef zeroext i1 @check_restrict_nonsystem_relation_kind(ptr noundef readonly captures(none) %0, ptr noundef writeonly captures(none) %1, i32 noundef %2) local_unnamed_addr #0 {
  %4 = alloca ptr, align 8
  call void @llvm.lifetime.start.p0(i64 8, ptr nonnull %4) #22
  %5 = load ptr, ptr %0, align 8
  %6 = tail call ptr @pstrdup(ptr noundef %5) #22
  %7 = call zeroext i1 @SplitIdentifierString(ptr noundef %6, i8 noundef signext 44, ptr noundef nonnull %4) #22
  br i1 %7, label %13, label %8

8:                                                ; preds = %3
  %9 = tail call ptr @__errno_location() #21
  %10 = load i32, ptr %9, align 4
  call void @pre_format_elog_string(i32 noundef %10, ptr noundef null) #22
  %11 = call ptr (ptr, ...) @format_elog_string(ptr noundef nonnull @.str.37) #22
  store ptr %11, ptr @GUC_check_errdetail_string, align 8
  call void @pfree(ptr noundef %6) #22
  %12 = load ptr, ptr %4, align 8
  call void @list_free(ptr noundef %12) #22
  br label %38

13:                                               ; preds = %3
  %14 = load ptr, ptr %4, align 8
  %.not = icmp eq ptr %14, null
  br i1 %.not, label %._crit_edge, label %.lr.ph

.lr.ph:                                           ; preds = %13
  %15 = getelementptr inbounds nuw i8, ptr %14, i64 4
  %16 = getelementptr inbounds nuw i8, ptr %14, i64 16
  %17 = load i32, ptr %15, align 4
  %18 = icmp sgt i32 %17, 0
  br i1 %18, label %.lr.ph51, label %._crit_edge

.lr.ph51:                                         ; preds = %.lr.ph, %27
  %indvars.iv = phi i64 [ %indvars.iv.next, %27 ], [ 0, %.lr.ph ]
  %.0224350 = phi i32 [ %28, %27 ], [ 0, %.lr.ph ]
  %19 = load ptr, ptr %16, align 8
  %20 = getelementptr inbounds nuw %union.ListCell, ptr %19, i64 %indvars.iv
  %21 = load ptr, ptr %20, align 8
  %22 = call i32 @pg_strcasecmp(ptr noundef %21, ptr noundef nonnull @.str.38) #22
  %23 = icmp eq i32 %22, 0
  br i1 %23, label %27, label %24

24:                                               ; preds = %.lr.ph51
  %25 = call i32 @pg_strcasecmp(ptr noundef %21, ptr noundef nonnull @.str.39) #22
  %26 = icmp eq i32 %25, 0
  br i1 %26, label %27, label %.split

27:                                               ; preds = %24, %.lr.ph51
  %.sink = phi i32 [ 1, %.lr.ph51 ], [ 2, %24 ]
  %28 = or i32 %.0224350, %.sink
  %indvars.iv.next = add nuw nsw i64 %indvars.iv, 1
  %29 = load i32, ptr %15, align 4
  %30 = sext i32 %29 to i64
  %31 = icmp slt i64 %indvars.iv.next, %30
  br i1 %31, label %.lr.ph51, label %._crit_edge

.split:                                           ; preds = %24
  %32 = tail call ptr @__errno_location() #21
  %33 = load i32, ptr %32, align 4
  call void @pre_format_elog_string(i32 noundef %33, ptr noundef null) #22
  %34 = call ptr (ptr, ...) @format_elog_string(ptr noundef nonnull @.str.40, ptr noundef %21) #22
  store ptr %34, ptr @GUC_check_errdetail_string, align 8
  call void @pfree(ptr noundef %6) #22
  %35 = load ptr, ptr %4, align 8
  call void @list_free(ptr noundef %35) #22
  br label %38

._crit_edge:                                      ; preds = %27, %.lr.ph, %13
  %.022.lcssa = phi i32 [ 0, %13 ], [ 0, %.lr.ph ], [ %28, %27 ]
  call void @pfree(ptr noundef %6) #22
  %36 = load ptr, ptr %4, align 8
  call void @list_free(ptr noundef %36) #22
  %37 = call ptr @guc_malloc(i32 noundef 21, i64 noundef 4) #22
  store ptr %37, ptr %1, align 8
  store i32 %.022.lcssa, ptr %37, align 4
  br label %38

38:                                               ; preds = %.split, %._crit_edge, %8
  %.0 = phi i1 [ true, %._crit_edge ], [ false, %.split ], [ false, %8 ]
  call void @llvm.lifetime.end.p0(i64 8, ptr nonnull %4) #22
  ret i1 %.0
}